target datalayout = "e-m:e-p270:32:32-p271:32:32-p272:64:64-i64:64-i128:128-f80:128-n8:16:32:64-S128"
target triple = "x86_64-pc-linux-gnu"

@_ZTIN3nix8SysErrorE = linkonce_odr constant { ptr, ptr, ptr } { ptr getelementptr inbounds (ptr, ptr @_ZTVN10__cxxabiv120__si_class_type_infoE, i64 2), ptr @_ZTSN3nix8SysErrorE, ptr @_ZTIN3nix11SystemErrorE }, comdat, align 8
@.str.14 = private unnamed_addr constant [27 x i8] c"setting close-on-exec flag\00", align 1

; Function Attrs: mustprogress uwtable
define void @_ZN3nix11closeOnExecEi(i32 noundef %0) #3 personality ptr @__gxx_personality_v0 {
  %2 = alloca i32, align 4
  %3 = alloca i32, align 4
  %4 = alloca ptr, align 8
  %5 = alloca i32, align 4
  store i32 %0, ptr %2, align 4
  %6 = load i32, ptr %2, align 4
  %7 = call i32 (i32, i32, ...) @fcntl(i32 noundef %6, i32 noundef 1, i32 noundef 0)
  store i32 %7, ptr %3, align 4
  %8 = icmp eq i32 %7, -1
  br i1 %8, label %15, label %9

9:                                                ; preds = %1
  %10 = load i32, ptr %2, align 4
  %11 = load i32, ptr %3, align 4
  %12 = or i32 %11, 1
  %13 = call i32 (i32, i32, ...) @fcntl(i32 noundef %10, i32 noundef 2, i32 noundef %12)
  %14 = icmp eq i32 %13, -1
  br i1 %14, label %15, label %22

15:                                               ; preds = %9, %1
  %16 = call ptr @__cxa_allocate_exception(i64 384) #1
  invoke void @_ZN3nix8SysErrorC2IJA27_cEEEDpRKT_(ptr noundef nonnull align 8 dereferenceable(380) %16, ptr noundef nonnull align 1 dereferenceable(27) @.str.14)
          to label %17 unwind label %18

17:                                               ; preds = %15
  call void @__cxa_throw(ptr %16, ptr @_ZTIN3nix8SysErrorE, ptr @_ZN3nix8SysErrorD2Ev) #19
  unreachable

18:                                               ; preds = %15
  %19 = landingpad { ptr, i32 }
          cleanup
  %20 = extractvalue { ptr, i32 } %19, 0
  store ptr %20, ptr %4, align 8
  %21 = extractvalue { ptr, i32 } %19, 1
  store i32 %21, ptr %5, align 4
  call void @__cxa_free_exception(ptr %16) #1
  br label %23

22:                                               ; preds = %9
  ret void

23:                                               ; preds = %18
  %24 = load ptr, ptr %4, align 8
  %25 = load i32, ptr %5, align 4
  %26 = insertvalue { ptr, i32 } poison, ptr %24, 0
  %27 = insertvalue { ptr, i32 } %26, i32 %25, 1
  resume { ptr, i32 } %27
}