; Function Attrs: mustprogress uwtable
define void @_ZN3nix11closeOnExecEi(i32 noundef %0) local_unnamed_addr #2 personality ptr @__gxx_personality_v0 {
  %2 = tail call i32 (i32, i32, ...) @fcntl(i32 noundef %0, i32 noundef 1, i32 noundef 0)
  %3 = icmp eq i32 %2, -1
  br i1 %3, label %8, label %4

4:                                                ; preds = %1
  %5 = or i32 %2, 1
  %6 = tail call i32 (i32, i32, ...) @fcntl(i32 noundef %0, i32 noundef 2, i32 noundef %5)
  %7 = icmp eq i32 %6, -1
  br i1 %7, label %8, label %13

8:                                                ; preds = %4, %1
  %9 = tail call ptr @__cxa_allocate_exception(i64 384) #29
  invoke void @_ZN3nix8SysErrorC2IJA27_cEEEDpRKT_(ptr noundef nonnull align 8 dereferenceable(380) %9, ptr noundef nonnull align 1 dereferenceable(27) @.str.14)
          to label %10 unwind label %11

10:                                               ; preds = %8
  tail call void @__cxa_throw(ptr nonnull %9, ptr nonnull @_ZTIN3nix8SysErrorE, ptr nonnull @_ZN3nix8SysErrorD2Ev) #30
  unreachable

11:                                               ; preds = %8
  %12 = landingpad { ptr, i32 }
          cleanup
  tail call void @__cxa_free_exception(ptr %9) #29
  resume { ptr, i32 } %12

13:                                               ; preds = %4
  ret void
}